target datalayout = "e-m:e-p270:32:32-p271:32:32-p272:64:64-i64:64-i128:128-f80:128-n8:16:32:64-S128"
target triple = "x86_64-pc-linux-gnu"

%struct.lxb_dom_document = type { %struct.lxb_dom_node, i32, i32, ptr, ptr, ptr, ptr, ptr, ptr, ptr, ptr, ptr, ptr, ptr, ptr, ptr, ptr, ptr, ptr, ptr, i8, i8, i8 }
%struct.lxb_dom_node = type { %struct.lxb_dom_event_target, i64, i64, i64, ptr, ptr, ptr, ptr, ptr, ptr, ptr, i32, i64 }
%struct.lxb_dom_event_target = type { ptr }
%struct.lxb_dom_document_type = type { %struct.lxb_dom_node, i64, %struct.lexbor_str_t, %struct.lexbor_str_t }
%struct.lexbor_str_t = type { ptr, i64 }

; Function Attrs: nounwind uwtable
define hidden ptr @lxb_dom_document_type_interface_destroy(ptr noundef %0) #0 {
  %2 = alloca ptr, align 8
  %3 = alloca ptr, align 8
  %4 = alloca %struct.lexbor_str_t, align 8
  %5 = alloca %struct.lexbor_str_t, align 8
  store ptr %0, ptr %2, align 8
  %6 = load ptr, ptr %2, align 8
  %7 = getelementptr inbounds %struct.lxb_dom_node, ptr %6, i32 0, i32 4
  %8 = load ptr, ptr %7, align 8
  %9 = getelementptr inbounds %struct.lxb_dom_document, ptr %8, i32 0, i32 13
  %10 = load ptr, ptr %9, align 8
  store ptr %10, ptr %3, align 8
  %11 = load ptr, ptr %2, align 8
  %12 = getelementptr inbounds %struct.lxb_dom_document_type, ptr %11, i32 0, i32 2
  call void @llvm.memcpy.p0.p0.i64(ptr align 8 %4, ptr align 8 %12, i64 16, i1 false)
  %13 = load ptr, ptr %2, align 8
  %14 = getelementptr inbounds %struct.lxb_dom_document_type, ptr %13, i32 0, i32 3
  call void @llvm.memcpy.p0.p0.i64(ptr align 8 %5, ptr align 8 %14, i64 16, i1 false)
  %15 = load ptr, ptr %2, align 8
  %16 = call ptr @lxb_dom_node_interface_destroy(ptr noundef %15)
  %17 = load ptr, ptr %3, align 8
  %18 = call ptr @lexbor_str_destroy(ptr noundef %4, ptr noundef %17, i1 noundef zeroext false)
  %19 = load ptr, ptr %3, align 8
  %20 = call ptr @lexbor_str_destroy(ptr noundef %5, ptr noundef %19, i1 noundef zeroext false)
  ret ptr null
}