; Function Attrs: nounwind uwtable
define hidden noalias noundef ptr @lxb_dom_document_type_interface_destroy(ptr noundef %0) local_unnamed_addr #0 {
  %2 = alloca %struct.lexbor_str_t, align 8
  %3 = alloca %struct.lexbor_str_t, align 8
  %4 = getelementptr inbounds i8, ptr %0, i64 32
  %5 = load ptr, ptr %4, align 8
  %6 = getelementptr inbounds i8, ptr %5, i64 192
  %7 = load ptr, ptr %6, align 8
  %8 = getelementptr inbounds i8, ptr %0, i64 112
  call void @llvm.memcpy.p0.p0.i64(ptr noundef nonnull align 8 dereferenceable(16) %2, ptr noundef nonnull align 8 dereferenceable(16) %8, i64 16, i1 false)
  %9 = getelementptr inbounds i8, ptr %0, i64 128
  call void @llvm.memcpy.p0.p0.i64(ptr noundef nonnull align 8 dereferenceable(16) %3, ptr noundef nonnull align 8 dereferenceable(16) %9, i64 16, i1 false)
  %10 = tail call ptr @lxb_dom_node_interface_destroy(ptr noundef %0) #5
  %11 = call ptr @lexbor_str_destroy(ptr noundef nonnull %2, ptr noundef %7, i1 noundef zeroext false) #5
  %12 = call ptr @lexbor_str_destroy(ptr noundef nonnull %3, ptr noundef %7, i1 noundef zeroext false) #5
  ret ptr null
}